; Function Attrs: mustprogress nounwind uwtable
define void @_ZN3net14SpdySettingsIRD2Ev(ptr noundef nonnull align 8 dereferenceable(58) initializes((0, 8)) %0) unnamed_addr #8 align 2 personality ptr @__gxx_personality_v0 {
  store ptr getelementptr inbounds nuw inrange(-16, 24) (i8, ptr @_ZTVN3net14SpdySettingsIRE, i64 16), ptr %0, align 8, !tbaa !20
  %2 = getelementptr inbounds nuw i8, ptr %0, i64 8
  %3 = getelementptr inbounds nuw i8, ptr %0, i64 24
  %4 = load ptr, ptr %3, align 8, !tbaa !50
  invoke void @_ZNSt8_Rb_treeIN3net15SpdySettingsIdsESt4pairIKS1_NS0_14SpdySettingsIR5ValueEESt10_Select1stIS6_ESt4lessIS1_ESaIS6_EE8_M_eraseEPSt13_Rb_tree_nodeIS6_E(ptr noundef nonnull align 8 dereferenceable(48) %2, ptr noundef %4)
          to label %_ZNSt3mapIN3net15SpdySettingsIdsENS0_14SpdySettingsIR5ValueESt4lessIS1_ESaISt4pairIKS1_S3_EEED2Ev.exit unwind label %5

5:                                                ; preds = %1
  %6 = landingpad { ptr, i32 }
          catch ptr null
  %7 = extractvalue { ptr, i32 } %6, 0
  tail call void @__clang_call_terminate(ptr %7) #23
  unreachable

_ZNSt3mapIN3net15SpdySettingsIdsENS0_14SpdySettingsIR5ValueESt4lessIS1_ESaISt4pairIKS1_S3_EEED2Ev.exit: ; preds = %1
  ret void
}